; ModuleID = '2/484.c'
source_filename = "2/484.c"
target datalayout = "e-m:e-p270:32:32-p271:32:32-p272:64:64-i64:64-f80:128-n8:16:32:64-S128"
target triple = "x86_64-pc-linux-gnu"

%struct.Au = type { i32, [1000 x i32] }

@au = common dso_local global [26 x %struct.Au] zeroinitializer, align 16
@.str = private unnamed_addr constant [3 x i8] c"%d\00", align 1
@.str.1 = private unnamed_addr constant [5 x i8] c"%d%s\00", align 1
@.str.2 = private unnamed_addr constant [7 x i8] c"%c\0A%d\0A\00", align 1
@.str.3 = private unnamed_addr constant [4 x i8] c"%d\0A\00", align 1

; Function Attrs: noinline nounwind uwtable
define dso_local i32 @main() #0 {
  %1 = alloca i32, align 4
  %2 = alloca i32, align 4
  %3 = alloca i32, align 4
  %4 = alloca i32, align 4
  %5 = alloca i32, align 4
  %6 = alloca [30 x i8], align 16
  %7 = alloca i32, align 4
  store i32 0, i32* %1, align 4
  store i32 0, i32* %2, align 4
  br label %8

8:                                                ; preds = %16, %0
  %9 = load i32, i32* %2, align 4
  %10 = icmp slt i32 %9, 26
  br i1 %10, label %11, label %19

11:                                               ; preds = %8
  %12 = load i32, i32* %2, align 4
  %13 = sext i32 %12 to i64
  %14 = getelementptr inbounds [26 x %struct.Au], [26 x %struct.Au]* @au, i64 0, i64 %13
  %15 = getelementptr inbounds %struct.Au, %struct.Au* %14, i32 0, i32 0
  store i32 0, i32* %15, align 4
  br label %16

16:                                               ; preds = %11
  %17 = load i32, i32* %2, align 4
  %18 = add nsw i32 %17, 1
  store i32 %18, i32* %2, align 4
  br label %8

19:                                               ; preds = %8
  %20 = call i32 (i8*, ...) @__isoc99_scanf(i8* getelementptr inbounds ([3 x i8], [3 x i8]* @.str, i64 0, i64 0), i32* %3)
  br label %21

21:                                               ; preds = %72, %19
  %22 = load i32, i32* %3, align 4
  %23 = add nsw i32 %22, -1
  store i32 %23, i32* %3, align 4
  %24 = icmp ne i32 %22, 0
  br i1 %24, label %25, label %73

25:                                               ; preds = %21
  %26 = getelementptr inbounds [30 x i8], [30 x i8]* %6, i64 0, i64 0
  %27 = call i32 (i8*, ...) @__isoc99_scanf(i8* getelementptr inbounds ([5 x i8], [5 x i8]* @.str.1, i64 0, i64 0), i32* %4, i8* %26)
  store i32 0, i32* %2, align 4
  br label %28

28:                                               ; preds = %69, %25
  %29 = load i32, i32* %2, align 4
  %30 = sext i32 %29 to i64
  %31 = getelementptr inbounds [30 x i8], [30 x i8]* %6, i64 0, i64 %30
  %32 = load i8, i8* %31, align 1
  %33 = icmp ne i8 %32, 0
  br i1 %33, label %34, label %72

34:                                               ; preds = %28
  %35 = load i32, i32* %2, align 4
  %36 = sext i32 %35 to i64
  %37 = getelementptr inbounds [30 x i8], [30 x i8]* %6, i64 0, i64 %36
  %38 = load i8, i8* %37, align 1
  %39 = sext i8 %38 to i32
  %40 = sub nsw i32 %39, 65
  %41 = sext i32 %40 to i64
  %42 = getelementptr inbounds [26 x %struct.Au], [26 x %struct.Au]* @au, i64 0, i64 %41
  %43 = getelementptr inbounds %struct.Au, %struct.Au* %42, i32 0, i32 0
  %44 = load i32, i32* %43, align 4
  store i32 %44, i32* %5, align 4
  %45 = load i32, i32* %4, align 4
  %46 = load i32, i32* %2, align 4
  %47 = sext i32 %46 to i64
  %48 = getelementptr inbounds [30 x i8], [30 x i8]* %6, i64 0, i64 %47
  %49 = load i8, i8* %48, align 1
  %50 = sext i8 %49 to i32
  %51 = sub nsw i32 %50, 65
  %52 = sext i32 %51 to i64
  %53 = getelementptr inbounds [26 x %struct.Au], [26 x %struct.Au]* @au, i64 0, i64 %52
  %54 = getelementptr inbounds %struct.Au, %struct.Au* %53, i32 0, i32 1
  %55 = load i32, i32* %5, align 4
  %56 = sext i32 %55 to i64
  %57 = getelementptr inbounds [1000 x i32], [1000 x i32]* %54, i64 0, i64 %56
  store i32 %45, i32* %57, align 4
  %58 = load i32, i32* %2, align 4
  %59 = sext i32 %58 to i64
  %60 = getelementptr inbounds [30 x i8], [30 x i8]* %6, i64 0, i64 %59
  %61 = load i8, i8* %60, align 1
  %62 = sext i8 %61 to i32
  %63 = sub nsw i32 %62, 65
  %64 = sext i32 %63 to i64
  %65 = getelementptr inbounds [26 x %struct.Au], [26 x %struct.Au]* @au, i64 0, i64 %64
  %66 = getelementptr inbounds %struct.Au, %struct.Au* %65, i32 0, i32 0
  %67 = load i32, i32* %66, align 4
  %68 = add nsw i32 %67, 1
  store i32 %68, i32* %66, align 4
  br label %69

69:                                               ; preds = %34
  %70 = load i32, i32* %2, align 4
  %71 = add nsw i32 %70, 1
  store i32 %71, i32* %2, align 4
  br label %28

72:                                               ; preds = %28
  br label %21

73:                                               ; preds = %21
  store i32 0, i32* %7, align 4
  store i32 1, i32* %2, align 4
  br label %74

74:                                               ; preds = %92, %73
  %75 = load i32, i32* %2, align 4
  %76 = icmp slt i32 %75, 26
  br i1 %76, label %77, label %95

77:                                               ; preds = %74
  %78 = load i32, i32* %2, align 4
  %79 = sext i32 %78 to i64
  %80 = getelementptr inbounds [26 x %struct.Au], [26 x %struct.Au]* @au, i64 0, i64 %79
  %81 = getelementptr inbounds %struct.Au, %struct.Au* %80, i32 0, i32 0
  %82 = load i32, i32* %81, align 4
  %83 = load i32, i32* %7, align 4
  %84 = sext i32 %83 to i64
  %85 = getelementptr inbounds [26 x %struct.Au], [26 x %struct.Au]* @au, i64 0, i64 %84
  %86 = getelementptr inbounds %struct.Au, %struct.Au* %85, i32 0, i32 0
  %87 = load i32, i32* %86, align 4
  %88 = icmp sgt i32 %82, %87
  br i1 %88, label %89, label %91

89:                                               ; preds = %77
  %90 = load i32, i32* %2, align 4
  store i32 %90, i32* %7, align 4
  br label %91

91:                                               ; preds = %89, %77
  br label %92

92:                                               ; preds = %91
  %93 = load i32, i32* %2, align 4
  %94 = add nsw i32 %93, 1
  store i32 %94, i32* %2, align 4
  br label %74

95:                                               ; preds = %74
  %96 = load i32, i32* %7, align 4
  %97 = add nsw i32 65, %96
  %98 = load i32, i32* %7, align 4
  %99 = sext i32 %98 to i64
  %100 = getelementptr inbounds [26 x %struct.Au], [26 x %struct.Au]* @au, i64 0, i64 %99
  %101 = getelementptr inbounds %struct.Au, %struct.Au* %100, i32 0, i32 0
  %102 = load i32, i32* %101, align 4
  %103 = call i32 (i8*, ...) @printf(i8* getelementptr inbounds ([7 x i8], [7 x i8]* @.str.2, i64 0, i64 0), i32 %97, i32 %102)
  store i32 0, i32* %2, align 4
  br label %104

104:                                              ; preds = %122, %95
  %105 = load i32, i32* %2, align 4
  %106 = load i32, i32* %7, align 4
  %107 = sext i32 %106 to i64
  %108 = getelementptr inbounds [26 x %struct.Au], [26 x %struct.Au]* @au, i64 0, i64 %107
  %109 = getelementptr inbounds %struct.Au, %struct.Au* %108, i32 0, i32 0
  %110 = load i32, i32* %109, align 4
  %111 = icmp slt i32 %105, %110
  br i1 %111, label %112, label %125

112:                                              ; preds = %104
  %113 = load i32, i32* %7, align 4
  %114 = sext i32 %113 to i64
  %115 = getelementptr inbounds [26 x %struct.Au], [26 x %struct.Au]* @au, i64 0, i64 %114
  %116 = getelementptr inbounds %struct.Au, %struct.Au* %115, i32 0, i32 1
  %117 = load i32, i32* %2, align 4
  %118 = sext i32 %117 to i64
  %119 = getelementptr inbounds [1000 x i32], [1000 x i32]* %116, i64 0, i64 %118
  %120 = load i32, i32* %119, align 4
  %121 = call i32 (i8*, ...) @printf(i8* getelementptr inbounds ([4 x i8], [4 x i8]* @.str.3, i64 0, i64 0), i32 %120)
  br label %122

122:                                              ; preds = %112
  %123 = load i32, i32* %2, align 4
  %124 = add nsw i32 %123, 1
  store i32 %124, i32* %2, align 4
  br label %104

125:                                              ; preds = %104
  ret i32 0
}

declare dso_local i32 @__isoc99_scanf(i8*, ...) #1

declare dso_local i32 @printf(i8*, ...) #1


!llvm.module.flags = !{!0}
!llvm.ident = !{!1}

!0 = !{i32 1, !"wchar_size", i32 4}
!1 = !{!"clang version 10.0.0-4ubuntu1 "}
